target datalayout = "e-m:e-p270:32:32-p271:32:32-p272:64:64-i64:64-i128:128-f80:128-n8:16:32:64-S128"
target triple = "x86_64-pc-linux-gnu"

%struct.Py_complex = type { double, double }

; Function Attrs: nounwind uwtable
define dso_local { double, double } @_Py_rc_quot(double noundef %0, double %1, double %2) #0 {
  %4 = alloca %struct.Py_complex, align 8
  %5 = alloca %struct.Py_complex, align 8
  %6 = alloca double, align 8
  %7 = alloca double, align 8
  %8 = alloca double, align 8
  %9 = alloca double, align 8
  %10 = alloca double, align 8
  %11 = alloca double, align 8
  %12 = alloca double, align 8
  %13 = alloca double, align 8
  %14 = alloca double, align 8
  %15 = getelementptr inbounds nuw { double, double }, ptr %5, i32 0, i32 0
  store double %1, ptr %15, align 8
  %16 = getelementptr inbounds nuw { double, double }, ptr %5, i32 0, i32 1
  store double %2, ptr %16, align 8
  store double %0, ptr %6, align 8, !tbaa !10
  call void @llvm.lifetime.start.p0(i64 8, ptr %7) #9
  %17 = getelementptr inbounds nuw %struct.Py_complex, ptr %5, i32 0, i32 0
  %18 = load double, ptr %17, align 8, !tbaa !4
  %19 = fcmp olt double %18, 0.000000e+00
  br i1 %19, label %20, label %24

20:                                               ; preds = %3
  %21 = getelementptr inbounds nuw %struct.Py_complex, ptr %5, i32 0, i32 0
  %22 = load double, ptr %21, align 8, !tbaa !4
  %23 = fneg double %22
  br label %27

24:                                               ; preds = %3
  %25 = getelementptr inbounds nuw %struct.Py_complex, ptr %5, i32 0, i32 0
  %26 = load double, ptr %25, align 8, !tbaa !4
  br label %27

27:                                               ; preds = %24, %20
  %28 = phi double [ %23, %20 ], [ %26, %24 ]
  store double %28, ptr %7, align 8, !tbaa !10
  call void @llvm.lifetime.start.p0(i64 8, ptr %8) #9
  %29 = getelementptr inbounds nuw %struct.Py_complex, ptr %5, i32 0, i32 1
  %30 = load double, ptr %29, align 8, !tbaa !9
  %31 = fcmp olt double %30, 0.000000e+00
  br i1 %31, label %32, label %36

32:                                               ; preds = %27
  %33 = getelementptr inbounds nuw %struct.Py_complex, ptr %5, i32 0, i32 1
  %34 = load double, ptr %33, align 8, !tbaa !9
  %35 = fneg double %34
  br label %39

36:                                               ; preds = %27
  %37 = getelementptr inbounds nuw %struct.Py_complex, ptr %5, i32 0, i32 1
  %38 = load double, ptr %37, align 8, !tbaa !9
  br label %39

39:                                               ; preds = %36, %32
  %40 = phi double [ %35, %32 ], [ %38, %36 ]
  store double %40, ptr %8, align 8, !tbaa !10
  %41 = load double, ptr %7, align 8, !tbaa !10
  %42 = load double, ptr %8, align 8, !tbaa !10
  %43 = fcmp oge double %41, %42
  br i1 %43, label %44, label %75

44:                                               ; preds = %39
  %45 = load double, ptr %7, align 8, !tbaa !10
  %46 = fcmp oeq double %45, 0.000000e+00
  br i1 %46, label %47, label %51

47:                                               ; preds = %44
  %48 = call ptr @__errno_location() #11
  store i32 33, ptr %48, align 4, !tbaa !12
  %49 = getelementptr inbounds nuw %struct.Py_complex, ptr %4, i32 0, i32 1
  store double 0.000000e+00, ptr %49, align 8, !tbaa !9
  %50 = getelementptr inbounds nuw %struct.Py_complex, ptr %4, i32 0, i32 0
  store double 0.000000e+00, ptr %50, align 8, !tbaa !4
  br label %74

51:                                               ; preds = %44
  call void @llvm.lifetime.start.p0(i64 8, ptr %9) #9
  %52 = getelementptr inbounds nuw %struct.Py_complex, ptr %5, i32 0, i32 1
  %53 = load double, ptr %52, align 8, !tbaa !9
  %54 = getelementptr inbounds nuw %struct.Py_complex, ptr %5, i32 0, i32 0
  %55 = load double, ptr %54, align 8, !tbaa !4
  %56 = fdiv double %53, %55
  store double %56, ptr %9, align 8, !tbaa !10
  call void @llvm.lifetime.start.p0(i64 8, ptr %10) #9
  %57 = getelementptr inbounds nuw %struct.Py_complex, ptr %5, i32 0, i32 0
  %58 = load double, ptr %57, align 8, !tbaa !4
  %59 = getelementptr inbounds nuw %struct.Py_complex, ptr %5, i32 0, i32 1
  %60 = load double, ptr %59, align 8, !tbaa !9
  %61 = load double, ptr %9, align 8, !tbaa !10
  %62 = call double @llvm.fmuladd.f64(double %60, double %61, double %58)
  store double %62, ptr %10, align 8, !tbaa !10
  %63 = load double, ptr %6, align 8, !tbaa !10
  %64 = load double, ptr %10, align 8, !tbaa !10
  %65 = fdiv double %63, %64
  %66 = getelementptr inbounds nuw %struct.Py_complex, ptr %4, i32 0, i32 0
  store double %65, ptr %66, align 8, !tbaa !4
  %67 = load double, ptr %6, align 8, !tbaa !10
  %68 = fneg double %67
  %69 = load double, ptr %9, align 8, !tbaa !10
  %70 = fmul double %68, %69
  %71 = load double, ptr %10, align 8, !tbaa !10
  %72 = fdiv double %70, %71
  %73 = getelementptr inbounds nuw %struct.Py_complex, ptr %4, i32 0, i32 1
  store double %72, ptr %73, align 8, !tbaa !9
  call void @llvm.lifetime.end.p0(i64 8, ptr %10) #9
  call void @llvm.lifetime.end.p0(i64 8, ptr %9) #9
  br label %74

74:                                               ; preds = %51, %47
  br label %106

75:                                               ; preds = %39
  %76 = load double, ptr %8, align 8, !tbaa !10
  %77 = load double, ptr %7, align 8, !tbaa !10
  %78 = fcmp oge double %76, %77
  br i1 %78, label %79, label %102

79:                                               ; preds = %75
  call void @llvm.lifetime.start.p0(i64 8, ptr %11) #9
  %80 = getelementptr inbounds nuw %struct.Py_complex, ptr %5, i32 0, i32 0
  %81 = load double, ptr %80, align 8, !tbaa !4
  %82 = getelementptr inbounds nuw %struct.Py_complex, ptr %5, i32 0, i32 1
  %83 = load double, ptr %82, align 8, !tbaa !9
  %84 = fdiv double %81, %83
  store double %84, ptr %11, align 8, !tbaa !10
  call void @llvm.lifetime.start.p0(i64 8, ptr %12) #9
  %85 = getelementptr inbounds nuw %struct.Py_complex, ptr %5, i32 0, i32 0
  %86 = load double, ptr %85, align 8, !tbaa !4
  %87 = load double, ptr %11, align 8, !tbaa !10
  %88 = getelementptr inbounds nuw %struct.Py_complex, ptr %5, i32 0, i32 1
  %89 = load double, ptr %88, align 8, !tbaa !9
  %90 = call double @llvm.fmuladd.f64(double %86, double %87, double %89)
  store double %90, ptr %12, align 8, !tbaa !10
  %91 = load double, ptr %6, align 8, !tbaa !10
  %92 = load double, ptr %11, align 8, !tbaa !10
  %93 = fmul double %91, %92
  %94 = load double, ptr %12, align 8, !tbaa !10
  %95 = fdiv double %93, %94
  %96 = getelementptr inbounds nuw %struct.Py_complex, ptr %4, i32 0, i32 0
  store double %95, ptr %96, align 8, !tbaa !4
  %97 = load double, ptr %6, align 8, !tbaa !10
  %98 = fneg double %97
  %99 = load double, ptr %12, align 8, !tbaa !10
  %100 = fdiv double %98, %99
  %101 = getelementptr inbounds nuw %struct.Py_complex, ptr %4, i32 0, i32 1
  store double %100, ptr %101, align 8, !tbaa !9
  call void @llvm.lifetime.end.p0(i64 8, ptr %12) #9
  call void @llvm.lifetime.end.p0(i64 8, ptr %11) #9
  br label %105

102:                                              ; preds = %75
  %103 = getelementptr inbounds nuw %struct.Py_complex, ptr %4, i32 0, i32 1
  store double 0x7FF8000000000000, ptr %103, align 8, !tbaa !9
  %104 = getelementptr inbounds nuw %struct.Py_complex, ptr %4, i32 0, i32 0
  store double 0x7FF8000000000000, ptr %104, align 8, !tbaa !4
  br label %105

105:                                              ; preds = %102, %79
  br label %106

106:                                              ; preds = %105, %74
  %107 = getelementptr inbounds nuw %struct.Py_complex, ptr %4, i32 0, i32 0
  %108 = load double, ptr %107, align 8, !tbaa !4
  %109 = call i1 @llvm.is.fpclass.f64(double %108, i32 3)
  br i1 %109, label %110, label %173

110:                                              ; preds = %106
  %111 = getelementptr inbounds nuw %struct.Py_complex, ptr %4, i32 0, i32 1
  %112 = load double, ptr %111, align 8, !tbaa !9
  %113 = call i1 @llvm.is.fpclass.f64(double %112, i32 3)
  br i1 %113, label %114, label %173

114:                                              ; preds = %110
  %115 = load double, ptr %6, align 8, !tbaa !10
  %116 = call i1 @llvm.is.fpclass.f64(double %115, i32 504)
  br i1 %116, label %117, label %173

117:                                              ; preds = %114
  %118 = load double, ptr %7, align 8, !tbaa !10
  %119 = call double @llvm.fabs.f64(double %118) #10
  %120 = fcmp oeq double %119, 0x7FF0000000000000
  %121 = bitcast double %118 to i64
  %122 = icmp slt i64 %121, 0
  %123 = select i1 %122, i32 -1, i32 1
  %124 = select i1 %120, i32 %123, i32 0
  %125 = icmp ne i32 %124, 0
  br i1 %125, label %135, label %126

126:                                              ; preds = %117
  %127 = load double, ptr %8, align 8, !tbaa !10
  %128 = call double @llvm.fabs.f64(double %127) #10
  %129 = fcmp oeq double %128, 0x7FF0000000000000
  %130 = bitcast double %127 to i64
  %131 = icmp slt i64 %130, 0
  %132 = select i1 %131, i32 -1, i32 1
  %133 = select i1 %129, i32 %132, i32 0
  %134 = icmp ne i32 %133, 0
  br i1 %134, label %135, label %173

135:                                              ; preds = %126, %117
  call void @llvm.lifetime.start.p0(i64 8, ptr %13) #9
  %136 = getelementptr inbounds nuw %struct.Py_complex, ptr %5, i32 0, i32 0
  %137 = load double, ptr %136, align 8, !tbaa !4
  %138 = call double @llvm.fabs.f64(double %137) #10
  %139 = fcmp oeq double %138, 0x7FF0000000000000
  %140 = bitcast double %137 to i64
  %141 = icmp slt i64 %140, 0
  %142 = select i1 %141, i32 -1, i32 1
  %143 = select i1 %139, i32 %142, i32 0
  %144 = icmp ne i32 %143, 0
  %145 = select i1 %144, double 1.000000e+00, double 0.000000e+00
  %146 = getelementptr inbounds nuw %struct.Py_complex, ptr %5, i32 0, i32 0
  %147 = load double, ptr %146, align 8, !tbaa !4
  %148 = call double @llvm.copysign.f64(double %145, double %147)
  store double %148, ptr %13, align 8, !tbaa !10
  call void @llvm.lifetime.start.p0(i64 8, ptr %14) #9
  %149 = getelementptr inbounds nuw %struct.Py_complex, ptr %5, i32 0, i32 1
  %150 = load double, ptr %149, align 8, !tbaa !9
  %151 = call double @llvm.fabs.f64(double %150) #10
  %152 = fcmp oeq double %151, 0x7FF0000000000000
  %153 = bitcast double %150 to i64
  %154 = icmp slt i64 %153, 0
  %155 = select i1 %154, i32 -1, i32 1
  %156 = select i1 %152, i32 %155, i32 0
  %157 = icmp ne i32 %156, 0
  %158 = select i1 %157, double 1.000000e+00, double 0.000000e+00
  %159 = getelementptr inbounds nuw %struct.Py_complex, ptr %5, i32 0, i32 1
  %160 = load double, ptr %159, align 8, !tbaa !9
  %161 = call double @llvm.copysign.f64(double %158, double %160)
  store double %161, ptr %14, align 8, !tbaa !10
  %162 = load double, ptr %6, align 8, !tbaa !10
  %163 = load double, ptr %13, align 8, !tbaa !10
  %164 = fmul double %162, %163
  %165 = fmul double 0.000000e+00, %164
  %166 = getelementptr inbounds nuw %struct.Py_complex, ptr %4, i32 0, i32 0
  store double %165, ptr %166, align 8, !tbaa !4
  %167 = load double, ptr %6, align 8, !tbaa !10
  %168 = fneg double %167
  %169 = load double, ptr %14, align 8, !tbaa !10
  %170 = fmul double %168, %169
  %171 = fmul double 0.000000e+00, %170
  %172 = getelementptr inbounds nuw %struct.Py_complex, ptr %4, i32 0, i32 1
  store double %171, ptr %172, align 8, !tbaa !9
  call void @llvm.lifetime.end.p0(i64 8, ptr %14) #9
  call void @llvm.lifetime.end.p0(i64 8, ptr %13) #9
  br label %173

173:                                              ; preds = %135, %126, %114, %110, %106
  call void @llvm.lifetime.end.p0(i64 8, ptr %8) #9
  call void @llvm.lifetime.end.p0(i64 8, ptr %7) #9
  %174 = load { double, double }, ptr %4, align 8
  ret { double, double } %174
}