; Function Attrs: mustprogress nofree nosync nounwind willreturn memory(write, inaccessiblemem: none) uwtable
define dso_local { double, double } @_Py_rc_quot(double noundef %0, double %1, double %2) local_unnamed_addr #4 {
  %4 = fcmp olt double %1, 0.000000e+00
  %5 = fneg double %1
  %6 = select i1 %4, double %5, double %1
  %7 = fcmp olt double %2, 0.000000e+00
  %8 = fneg double %2
  %9 = select i1 %7, double %8, double %2
  %10 = fcmp ult double %6, %9
  br i1 %10, label %22, label %11

11:                                               ; preds = %3
  %12 = fcmp oeq double %1, 0.000000e+00
  br i1 %12, label %13, label %15

13:                                               ; preds = %11
  %14 = tail call ptr @__errno_location() #15
  store i32 33, ptr %14, align 4, !tbaa !4
  br label %31

15:                                               ; preds = %11
  %16 = fdiv double %2, %1
  %17 = tail call double @llvm.fmuladd.f64(double %2, double %16, double %1)
  %18 = fdiv double %0, %17
  %19 = fneg double %0
  %20 = fmul double %16, %19
  %21 = fdiv double %20, %17
  br label %31

22:                                               ; preds = %3
  %23 = fcmp ult double %9, %6
  br i1 %23, label %31, label %24

24:                                               ; preds = %22
  %25 = fdiv double %1, %2
  %26 = tail call double @llvm.fmuladd.f64(double %1, double %25, double %2)
  %27 = fmul double %0, %25
  %28 = fdiv double %27, %26
  %29 = fneg double %0
  %30 = fdiv double %29, %26
  br label %31

31:                                               ; preds = %22, %24, %13, %15
  %.sroa.040.0 = phi double [ 0.000000e+00, %13 ], [ %18, %15 ], [ %28, %24 ], [ 0x7FF8000000000000, %22 ]
  %.sroa.7.0 = phi double [ 0.000000e+00, %13 ], [ %21, %15 ], [ %30, %24 ], [ 0x7FF8000000000000, %22 ]
  %32 = fcmp ord double %.sroa.040.0, 0.000000e+00
  %33 = fcmp ord double %.sroa.7.0, 0.000000e+00
  %or.cond.not47 = or i1 %32, %33
  %34 = tail call double @llvm.fabs.f64(double %0)
  %35 = fcmp ueq double %34, 0x7FF0000000000000
  %or.cond43 = or i1 %35, %or.cond.not47
  br i1 %or.cond43, label %51, label %36

36:                                               ; preds = %31
  %37 = tail call double @llvm.fabs.f64(double %1) #14
  %38 = fcmp oeq double %37, 0x7FF0000000000000
  %39 = tail call double @llvm.fabs.f64(double %2) #14
  %40 = fcmp oeq double %39, 0x7FF0000000000000
  %or.cond45 = or i1 %38, %40
  br i1 %or.cond45, label %41, label %51

41:                                               ; preds = %36
  %42 = select i1 %38, double 1.000000e+00, double 0.000000e+00
  %43 = tail call double @llvm.copysign.f64(double %42, double %1)
  %44 = select i1 %40, double 1.000000e+00, double 0.000000e+00
  %45 = tail call double @llvm.copysign.f64(double %44, double %2)
  %46 = fmul double %0, %43
  %47 = fmul double %46, 0.000000e+00
  %48 = fneg double %0
  %49 = fmul double %45, %48
  %50 = fmul double %49, 0.000000e+00
  br label %51

51:                                               ; preds = %36, %41, %31
  %.sroa.040.1 = phi double [ %47, %41 ], [ %.sroa.040.0, %31 ], [ %.sroa.040.0, %36 ]
  %.sroa.7.1 = phi double [ %50, %41 ], [ %.sroa.7.0, %31 ], [ %.sroa.7.0, %36 ]
  %.fca.0.insert = insertvalue { double, double } poison, double %.sroa.040.1, 0
  %.fca.1.insert = insertvalue { double, double } %.fca.0.insert, double %.sroa.7.1, 1
  ret { double, double } %.fca.1.insert
}